; Function Attrs: mustprogress nofree norecurse nosync nounwind memory(read, argmem: readwrite, inaccessiblemem: none) uwtable
define noundef zeroext i1 @_ZN11OpenImageIO6v3_1_07Strutil9parse_intERNS0_17basic_string_viewIcSt11char_traitsIcEEERib(ptr noundef nonnull align 8 captures(none) dereferenceable(16) %0, ptr noundef nonnull writeonly align 4 captures(none) dereferenceable(4) %1, i1 noundef zeroext %2) local_unnamed_addr #14 personality ptr @__gxx_personality_v0 {
  %4 = alloca i64, align 8
  %5 = alloca %"class.OpenImageIO::v3_1_0::basic_string_view", align 8
  %6 = getelementptr inbounds nuw i8, ptr %0, i64 8
  %7 = load i64, ptr %6, align 8, !tbaa !64
  %.not4.i = icmp eq i64 %7, 0
  br i1 %.not4.i, label %_ZN11OpenImageIO6v3_1_07Strutil15skip_whitespaceERNS0_17basic_string_viewIcSt11char_traitsIcEEE.exit.thread, label %.lr.ph.i.preheader

.lr.ph.i.preheader:                               ; preds = %3
  %8 = load ptr, ptr %0, align 8, !tbaa !67
  br label %.lr.ph.i

.lr.ph.i:                                         ; preds = %.lr.ph.i.preheader, %10
  %.sroa.7.0 = phi i64 [ %12, %10 ], [ %7, %.lr.ph.i.preheader ]
  %.sroa.06.0 = phi ptr [ %11, %10 ], [ %8, %.lr.ph.i.preheader ]
  %9 = load i8, ptr %.sroa.06.0, align 1, !tbaa !3
  switch i8 %9, label %_ZN11OpenImageIO6v3_1_07Strutil15skip_whitespaceERNS0_17basic_string_viewIcSt11char_traitsIcEEE.exit [
    i8 32, label %10
    i8 10, label %10
    i8 9, label %10
    i8 13, label %10
  ]

10:                                               ; preds = %.lr.ph.i, %.lr.ph.i, %.lr.ph.i, %.lr.ph.i
  %11 = getelementptr inbounds nuw i8, ptr %.sroa.06.0, i64 1
  %12 = add i64 %.sroa.7.0, -1
  %.not.i = icmp eq i64 %12, 0
  br i1 %.not.i, label %_ZN11OpenImageIO6v3_1_07Strutil15skip_whitespaceERNS0_17basic_string_viewIcSt11char_traitsIcEEE.exit.thread, label %.lr.ph.i, !llvm.loop !79

_ZN11OpenImageIO6v3_1_07Strutil15skip_whitespaceERNS0_17basic_string_viewIcSt11char_traitsIcEEE.exit: ; preds = %.lr.ph.i
  call void @llvm.lifetime.start.p0(i64 8, ptr nonnull %4) #16
  store i64 0, ptr %4, align 8, !tbaa !86
  store ptr %.sroa.06.0, ptr %5, align 8, !tbaa !67
  %13 = getelementptr inbounds nuw i8, ptr %5, i64 8
  store i64 %.sroa.7.0, ptr %13, align 8, !tbaa !64
  %14 = call noundef i32 @_ZN11OpenImageIO6v3_1_07Strutil4stoiENS0_17basic_string_viewIcSt11char_traitsIcEEEPmi(ptr noundef nonnull %5, ptr noundef nonnull %4, i32 noundef 10)
  %15 = load i64, ptr %4, align 8, !tbaa !86
  %16 = icmp ne i64 %15, 0
  br i1 %16, label %17, label %20

17:                                               ; preds = %_ZN11OpenImageIO6v3_1_07Strutil15skip_whitespaceERNS0_17basic_string_viewIcSt11char_traitsIcEEE.exit
  br i1 %2, label %_ZNK11OpenImageIO6v3_1_017basic_string_viewIcSt11char_traitsIcEE6substrEmm.exit, label %19

_ZNK11OpenImageIO6v3_1_017basic_string_viewIcSt11char_traitsIcEE6substrEmm.exit: ; preds = %17
  %.not.i5 = icmp ult i64 %15, %.sroa.7.0
  %18 = getelementptr inbounds nuw i8, ptr %.sroa.06.0, i64 %15
  %.sroa.0.0 = select i1 %.not.i5, ptr %18, ptr null
  %.sroa.5.0 = call i64 @llvm.usub.sat.i64(i64 %.sroa.7.0, i64 %15)
  store ptr %.sroa.0.0, ptr %0, align 8, !tbaa !13
  store i64 %.sroa.5.0, ptr %6, align 8, !tbaa !86
  br label %19

19:                                               ; preds = %_ZNK11OpenImageIO6v3_1_017basic_string_viewIcSt11char_traitsIcEE6substrEmm.exit, %17
  store i32 %14, ptr %1, align 4, !tbaa !6
  br label %20

20:                                               ; preds = %_ZN11OpenImageIO6v3_1_07Strutil15skip_whitespaceERNS0_17basic_string_viewIcSt11char_traitsIcEEE.exit, %19
  call void @llvm.lifetime.end.p0(i64 8, ptr nonnull %4) #16
  br label %_ZN11OpenImageIO6v3_1_07Strutil15skip_whitespaceERNS0_17basic_string_viewIcSt11char_traitsIcEEE.exit.thread

_ZN11OpenImageIO6v3_1_07Strutil15skip_whitespaceERNS0_17basic_string_viewIcSt11char_traitsIcEEE.exit.thread: ; preds = %10, %3, %20
  %.0 = phi i1 [ %16, %20 ], [ false, %3 ], [ false, %10 ]
  ret i1 %.0
}